target datalayout = "e-m:e-p270:32:32-p271:32:32-p272:64:64-i64:64-i128:128-f80:128-n8:16:32:64-S128"
target triple = "x86_64-pc-linux-gnu"

%struct.Aig_Man_t_ = type { ptr, ptr, ptr, ptr, ptr, ptr, ptr, %struct.Aig_Obj_t_, i32, i32, i32, i32, i32, i32, [7 x i32], i32, ptr, i32, ptr, i32, ptr, i32, i32, i32, ptr, i32, i32, i32, i32, i32, ptr, ptr, i32, ptr, ptr, i32, ptr, ptr, i32, i32, i32, ptr, ptr, ptr, ptr, ptr, ptr, ptr, ptr, ptr, ptr, ptr, ptr, ptr, ptr, i32, ptr, ptr, ptr, ptr, i32, i64, i64, i64, ptr, ptr }
%struct.Aig_Obj_t_ = type { %union.anon, ptr, ptr, i64, i32, i32, %union.anon.0 }
%union.anon = type { ptr }
%union.anon.0 = type { ptr }
%struct.Vec_Ptr_t_ = type { i32, i32, ptr }
%struct.timespec = type { i64, i64 }

@.str = private unnamed_addr constant [12 x i8] c"Var =%3d : \00", align 1
@.str.1 = private unnamed_addr constant [13 x i8] c"Supp0 =%3d  \00", align 1
@.str.2 = private unnamed_addr constant [14 x i8] c"Size0 =%6d   \00", align 1
@.str.3 = private unnamed_addr constant [13 x i8] c"Supp1 =%3d  \00", align 1
@.str.4 = private unnamed_addr constant [14 x i8] c"Size1 =%6d   \00", align 1
@.str.5 = private unnamed_addr constant [9 x i8] c"D =%6d  \00", align 1
@.str.6 = private unnamed_addr constant [9 x i8] c"B =%6d  \00", align 1
@.str.7 = private unnamed_addr constant [8 x i8] c"S =%6d\0A\00", align 1
@.str.8 = private unnamed_addr constant [57 x i8] c"BestVar = %4d/%4d.  Value =%6d.  Orig =%6d. Size0 =%6d. \00", align 1
@.str.9 = private unnamed_addr constant [5 x i8] c"Time\00", align 1
@.str.42 = private unnamed_addr constant [5 x i8] c"%s =\00", align 1
@.str.55 = private unnamed_addr constant [11 x i8] c"%9.2f sec\0A\00", align 1

; Function Attrs: inlinehint nounwind uwtable
define internal void @Abc_PrintTime(i32 noundef %0, ptr noundef %1, i64 noundef %2) #3 {
  %4 = alloca i32, align 4
  %5 = alloca ptr, align 8
  %6 = alloca i64, align 8
  store i32 %0, ptr %4, align 4, !tbaa !12
  store ptr %1, ptr %5, align 8, !tbaa !38
  store i64 %2, ptr %6, align 8, !tbaa !14
  %7 = load ptr, ptr %5, align 8, !tbaa !38
  call void (i32, ptr, ...) @Abc_Print(i32 noundef 1, ptr noundef @.str.42, ptr noundef %7)
  %8 = load i64, ptr %6, align 8, !tbaa !14
  %9 = sitofp i64 %8 to double
  %10 = fmul double 1.000000e+00, %9
  %11 = fdiv double %10, 1.000000e+06
  call void (i32, ptr, ...) @Abc_Print(i32 noundef 1, ptr noundef @.str.55, double noundef %11)
  ret void
}

; Function Attrs: inlinehint nounwind uwtable
define internal ptr @Saig_ManLo(ptr noundef %0, i32 noundef %1) #3 {
  %3 = alloca ptr, align 8
  %4 = alloca i32, align 4
  store ptr %0, ptr %3, align 8, !tbaa !10
  store i32 %1, ptr %4, align 4, !tbaa !12
  %5 = load ptr, ptr %3, align 8, !tbaa !10
  %6 = getelementptr inbounds nuw %struct.Aig_Man_t_, ptr %5, i32 0, i32 2
  %7 = load ptr, ptr %6, align 8, !tbaa !16
  %8 = load ptr, ptr %3, align 8, !tbaa !10
  %9 = call i32 @Saig_ManPiNum(ptr noundef %8)
  %10 = load i32, ptr %4, align 4, !tbaa !12
  %11 = add nsw i32 %9, %10
  %12 = call ptr @Vec_PtrEntry(ptr noundef %7, i32 noundef %11)
  ret ptr %12
}

; Function Attrs: inlinehint nounwind uwtable
define internal i32 @Abc_MinInt(i32 noundef %0, i32 noundef %1) #3 {
  %3 = alloca i32, align 4
  %4 = alloca i32, align 4
  store i32 %0, ptr %3, align 4, !tbaa !12
  store i32 %1, ptr %4, align 4, !tbaa !12
  %5 = load i32, ptr %3, align 4, !tbaa !12
  %6 = load i32, ptr %4, align 4, !tbaa !12
  %7 = icmp slt i32 %5, %6
  br i1 %7, label %8, label %10

8:                                                ; preds = %2
  %9 = load i32, ptr %3, align 4, !tbaa !12
  br label %12

10:                                               ; preds = %2
  %11 = load i32, ptr %4, align 4, !tbaa !12
  br label %12

12:                                               ; preds = %10, %8
  %13 = phi i32 [ %9, %8 ], [ %11, %10 ]
  ret i32 %13
}

; Function Attrs: inlinehint nounwind uwtable
define internal i32 @Abc_MaxInt(i32 noundef %0, i32 noundef %1) #3 {
  %3 = alloca i32, align 4
  %4 = alloca i32, align 4
  store i32 %0, ptr %3, align 4, !tbaa !12
  store i32 %1, ptr %4, align 4, !tbaa !12
  %5 = load i32, ptr %3, align 4, !tbaa !12
  %6 = load i32, ptr %4, align 4, !tbaa !12
  %7 = icmp sgt i32 %5, %6
  br i1 %7, label %8, label %10

8:                                                ; preds = %2
  %9 = load i32, ptr %3, align 4, !tbaa !12
  br label %12

10:                                               ; preds = %2
  %11 = load i32, ptr %4, align 4, !tbaa !12
  br label %12

12:                                               ; preds = %10, %8
  %13 = phi i32 [ %9, %8 ], [ %11, %10 ]
  ret i32 %13
}

; Function Attrs: inlinehint nounwind uwtable
define internal i32 @Aig_ObjId(ptr noundef %0) #3 {
  %2 = alloca ptr, align 8
  store ptr %0, ptr %2, align 8, !tbaa !28
  %3 = load ptr, ptr %2, align 8, !tbaa !28
  %4 = getelementptr inbounds nuw %struct.Aig_Obj_t_, ptr %3, i32 0, i32 5
  %5 = load i32, ptr %4, align 4, !tbaa !37
  ret i32 %5
}

; Function Attrs: inlinehint nounwind uwtable
define internal ptr @Vec_PtrEntry(ptr noundef %0, i32 noundef %1) #3 {
  %3 = alloca ptr, align 8
  %4 = alloca i32, align 4
  store ptr %0, ptr %3, align 8, !tbaa !32
  store i32 %1, ptr %4, align 4, !tbaa !12
  %5 = load ptr, ptr %3, align 8, !tbaa !32
  %6 = getelementptr inbounds nuw %struct.Vec_Ptr_t_, ptr %5, i32 0, i32 2
  %7 = load ptr, ptr %6, align 8, !tbaa !33
  %8 = load i32, ptr %4, align 4, !tbaa !12
  %9 = sext i32 %8 to i64
  %10 = getelementptr inbounds ptr, ptr %7, i64 %9
  %11 = load ptr, ptr %10, align 8, !tbaa !35
  ret ptr %11
}

; Function Attrs: inlinehint nounwind uwtable
define internal i32 @Saig_ManPiNum(ptr noundef %0) #3 {
  %2 = alloca ptr, align 8
  store ptr %0, ptr %2, align 8, !tbaa !10
  %3 = load ptr, ptr %2, align 8, !tbaa !10
  %4 = getelementptr inbounds nuw %struct.Aig_Man_t_, ptr %3, i32 0, i32 9
  %5 = load i32, ptr %4, align 4, !tbaa !36
  ret i32 %5
}

; Function Attrs: inlinehint nounwind uwtable
define internal i32 @Saig_ManRegNum(ptr noundef %0) #3 {
  %2 = alloca ptr, align 8
  store ptr %0, ptr %2, align 8, !tbaa !10
  %3 = load ptr, ptr %2, align 8, !tbaa !10
  %4 = getelementptr inbounds nuw %struct.Aig_Man_t_, ptr %3, i32 0, i32 8
  %5 = load i32, ptr %4, align 8, !tbaa !31
  ret i32 %5
}

; Function Attrs: inlinehint nounwind uwtable
define internal i64 @Abc_Clock() #3 {
  %1 = alloca i64, align 8
  %2 = alloca %struct.timespec, align 8
  %3 = alloca i32, align 4
  %4 = alloca i64, align 8
  call void @llvm.lifetime.start.p0(i64 16, ptr %2) #12
  %5 = call i32 @clock_gettime(i32 noundef 1, ptr noundef %2) #12
  %6 = icmp slt i32 %5, 0
  br i1 %6, label %7, label %8

7:                                                ; preds = %0
  store i64 -1, ptr %1, align 8
  store i32 1, ptr %3, align 4
  br label %19

8:                                                ; preds = %0
  call void @llvm.lifetime.start.p0(i64 8, ptr %4) #12
  %9 = getelementptr inbounds nuw %struct.timespec, ptr %2, i32 0, i32 0
  %10 = load i64, ptr %9, align 8, !tbaa !143
  %11 = mul nsw i64 %10, 1000000
  store i64 %11, ptr %4, align 8, !tbaa !14
  %12 = getelementptr inbounds nuw %struct.timespec, ptr %2, i32 0, i32 1
  %13 = load i64, ptr %12, align 8, !tbaa !145
  %14 = mul nsw i64 %13, 1000000
  %15 = sdiv i64 %14, 1000000000
  %16 = load i64, ptr %4, align 8, !tbaa !14
  %17 = add nsw i64 %16, %15
  store i64 %17, ptr %4, align 8, !tbaa !14
  %18 = load i64, ptr %4, align 8, !tbaa !14
  store i64 %18, ptr %1, align 8
  store i32 1, ptr %3, align 4
  call void @llvm.lifetime.end.p0(i64 8, ptr %4) #12
  br label %19

19:                                               ; preds = %8, %7
  call void @llvm.lifetime.end.p0(i64 16, ptr %2) #12
  %20 = load i64, ptr %1, align 8
  ret i64 %20
}

; Function Attrs: nounwind uwtable
define i32 @Llb_NonlinFindBestVar(ptr noundef %0, ptr noundef %1, ptr noundef %2) #0 {
  %4 = alloca ptr, align 8
  %5 = alloca ptr, align 8
  %6 = alloca ptr, align 8
  %7 = alloca i32, align 4
  %8 = alloca ptr, align 8
  %9 = alloca ptr, align 8
  %10 = alloca ptr, align 8
  %11 = alloca i32, align 4
  %12 = alloca i32, align 4
  %13 = alloca i32, align 4
  %14 = alloca i32, align 4
  %15 = alloca i32, align 4
  %16 = alloca i32, align 4
  %17 = alloca i32, align 4
  %18 = alloca i32, align 4
  %19 = alloca i32, align 4
  %20 = alloca i64, align 8
  store ptr %0, ptr %4, align 8, !tbaa !3
  store ptr %1, ptr %5, align 8, !tbaa !8
  store ptr %2, ptr %6, align 8, !tbaa !10
  call void @llvm.lifetime.start.p0(i64 4, ptr %7) #12
  store i32 0, ptr %7, align 4, !tbaa !12
  call void @llvm.lifetime.start.p0(i64 8, ptr %8) #12
  call void @llvm.lifetime.start.p0(i64 8, ptr %9) #12
  call void @llvm.lifetime.start.p0(i64 8, ptr %10) #12
  call void @llvm.lifetime.start.p0(i64 4, ptr %11) #12
  call void @llvm.lifetime.start.p0(i64 4, ptr %12) #12
  call void @llvm.lifetime.start.p0(i64 4, ptr %13) #12
  store i32 -1, ptr %13, align 4, !tbaa !12
  call void @llvm.lifetime.start.p0(i64 4, ptr %14) #12
  call void @llvm.lifetime.start.p0(i64 4, ptr %15) #12
  store i32 1000000000, ptr %15, align 4, !tbaa !12
  call void @llvm.lifetime.start.p0(i64 4, ptr %16) #12
  store i32 -1, ptr %16, align 4, !tbaa !12
  call void @llvm.lifetime.start.p0(i64 4, ptr %17) #12
  call void @llvm.lifetime.start.p0(i64 4, ptr %18) #12
  call void @llvm.lifetime.start.p0(i64 4, ptr %19) #12
  call void @llvm.lifetime.start.p0(i64 8, ptr %20) #12
  %21 = call i64 @Abc_Clock()
  store i64 %21, ptr %20, align 8, !tbaa !14
  %22 = load ptr, ptr %5, align 8, !tbaa !8
  %23 = call i32 @Cudd_DagSize(ptr noundef %22)
  store i32 %23, ptr %17, align 4, !tbaa !12
  store i32 0, ptr %11, align 4, !tbaa !12
  br label %24

24:                                               ; preds = %156, %3
  %25 = load i32, ptr %11, align 4, !tbaa !12
  %26 = load ptr, ptr %6, align 8, !tbaa !10
  %27 = call i32 @Saig_ManRegNum(ptr noundef %26)
  %28 = icmp slt i32 %25, %27
  br i1 %28, label %29, label %38

29:                                               ; preds = %24
  %30 = load ptr, ptr %6, align 8, !tbaa !10
  %31 = getelementptr inbounds nuw %struct.Aig_Man_t_, ptr %30, i32 0, i32 2
  %32 = load ptr, ptr %31, align 8, !tbaa !16
  %33 = load i32, ptr %11, align 4, !tbaa !12
  %34 = load ptr, ptr %6, align 8, !tbaa !10
  %35 = call i32 @Saig_ManPiNum(ptr noundef %34)
  %36 = add nsw i32 %33, %35
  %37 = call ptr @Vec_PtrEntry(ptr noundef %32, i32 noundef %36)
  store ptr %37, ptr %8, align 8, !tbaa !28
  br label %38

38:                                               ; preds = %29, %24
  %39 = phi i1 [ false, %24 ], [ true, %29 ]
  br i1 %39, label %40, label %159

40:                                               ; preds = %38
  %41 = load ptr, ptr %8, align 8, !tbaa !28
  %42 = call i32 @Aig_ObjId(ptr noundef %41)
  store i32 %42, ptr %12, align 4, !tbaa !12
  %43 = load i32, ptr %7, align 4, !tbaa !12
  %44 = icmp ne i32 %43, 0
  br i1 %44, label %45, label %48

45:                                               ; preds = %40
  %46 = load i32, ptr %12, align 4, !tbaa !12
  %47 = call i32 (ptr, ...) @printf(ptr noundef @.str, i32 noundef %46)
  br label %48

48:                                               ; preds = %45, %40
  %49 = load ptr, ptr %4, align 8, !tbaa !3
  %50 = load i32, ptr %12, align 4, !tbaa !12
  %51 = call ptr @Cudd_bddIthVar(ptr noundef %49, i32 noundef %50)
  store ptr %51, ptr %10, align 8, !tbaa !8
  %52 = load ptr, ptr %4, align 8, !tbaa !3
  %53 = load ptr, ptr %5, align 8, !tbaa !8
  %54 = load ptr, ptr %10, align 8, !tbaa !8
  %55 = ptrtoint ptr %54 to i64
  %56 = xor i64 %55, 1
  %57 = inttoptr i64 %56 to ptr
  %58 = call ptr @Cudd_bddAnd(ptr noundef %52, ptr noundef %53, ptr noundef %57)
  store ptr %58, ptr %9, align 8, !tbaa !8
  %59 = load ptr, ptr %9, align 8, !tbaa !8
  call void @Cudd_Ref(ptr noundef %59)
  %60 = load ptr, ptr %9, align 8, !tbaa !8
  %61 = call i32 @Cudd_DagSize(ptr noundef %60)
  store i32 %61, ptr %18, align 4, !tbaa !12
  %62 = load i32, ptr %7, align 4, !tbaa !12
  %63 = icmp ne i32 %62, 0
  br i1 %63, label %64, label %69

64:                                               ; preds = %48
  %65 = load ptr, ptr %4, align 8, !tbaa !3
  %66 = load ptr, ptr %9, align 8, !tbaa !8
  %67 = call i32 @Cudd_SupportSize(ptr noundef %65, ptr noundef %66)
  %68 = call i32 (ptr, ...) @printf(ptr noundef @.str.1, i32 noundef %67)
  br label %69

69:                                               ; preds = %64, %48
  %70 = load i32, ptr %7, align 4, !tbaa !12
  %71 = icmp ne i32 %70, 0
  br i1 %71, label %72, label %75

72:                                               ; preds = %69
  %73 = load i32, ptr %18, align 4, !tbaa !12
  %74 = call i32 (ptr, ...) @printf(ptr noundef @.str.2, i32 noundef %73)
  br label %75

75:                                               ; preds = %72, %69
  %76 = load ptr, ptr %4, align 8, !tbaa !3
  %77 = load ptr, ptr %9, align 8, !tbaa !8
  call void @Cudd_RecursiveDeref(ptr noundef %76, ptr noundef %77)
  %78 = load ptr, ptr %4, align 8, !tbaa !3
  %79 = load ptr, ptr %5, align 8, !tbaa !8
  %80 = load ptr, ptr %10, align 8, !tbaa !8
  %81 = call ptr @Cudd_bddAnd(ptr noundef %78, ptr noundef %79, ptr noundef %80)
  store ptr %81, ptr %9, align 8, !tbaa !8
  %82 = load ptr, ptr %9, align 8, !tbaa !8
  call void @Cudd_Ref(ptr noundef %82)
  %83 = load ptr, ptr %9, align 8, !tbaa !8
  %84 = call i32 @Cudd_DagSize(ptr noundef %83)
  store i32 %84, ptr %19, align 4, !tbaa !12
  %85 = load i32, ptr %7, align 4, !tbaa !12
  %86 = icmp ne i32 %85, 0
  br i1 %86, label %87, label %92

87:                                               ; preds = %75
  %88 = load ptr, ptr %4, align 8, !tbaa !3
  %89 = load ptr, ptr %9, align 8, !tbaa !8
  %90 = call i32 @Cudd_SupportSize(ptr noundef %88, ptr noundef %89)
  %91 = call i32 (ptr, ...) @printf(ptr noundef @.str.3, i32 noundef %90)
  br label %92

92:                                               ; preds = %87, %75
  %93 = load i32, ptr %7, align 4, !tbaa !12
  %94 = icmp ne i32 %93, 0
  br i1 %94, label %95, label %98

95:                                               ; preds = %92
  %96 = load i32, ptr %19, align 4, !tbaa !12
  %97 = call i32 (ptr, ...) @printf(ptr noundef @.str.4, i32 noundef %96)
  br label %98

98:                                               ; preds = %95, %92
  %99 = load ptr, ptr %4, align 8, !tbaa !3
  %100 = load ptr, ptr %9, align 8, !tbaa !8
  call void @Cudd_RecursiveDeref(ptr noundef %99, ptr noundef %100)
  %101 = load i32, ptr %18, align 4, !tbaa !12
  %102 = load i32, ptr %19, align 4, !tbaa !12
  %103 = call i32 @Abc_MaxInt(i32 noundef %101, i32 noundef %102)
  %104 = load i32, ptr %18, align 4, !tbaa !12
  %105 = load i32, ptr %19, align 4, !tbaa !12
  %106 = call i32 @Abc_MinInt(i32 noundef %104, i32 noundef %105)
  %107 = sub nsw i32 %103, %106
  %108 = load i32, ptr %18, align 4, !tbaa !12
  %109 = add nsw i32 %107, %108
  %110 = load i32, ptr %19, align 4, !tbaa !12
  %111 = add nsw i32 %109, %110
  %112 = load i32, ptr %17, align 4, !tbaa !12
  %113 = sub nsw i32 %111, %112
  store i32 %113, ptr %14, align 4, !tbaa !12
  %114 = load i32, ptr %7, align 4, !tbaa !12
  %115 = icmp ne i32 %114, 0
  br i1 %115, label %116, label %123

116:                                              ; preds = %98
  %117 = load i32, ptr %18, align 4, !tbaa !12
  %118 = load i32, ptr %19, align 4, !tbaa !12
  %119 = add nsw i32 %117, %118
  %120 = load i32, ptr %17, align 4, !tbaa !12
  %121 = sub nsw i32 %119, %120
  %122 = call i32 (ptr, ...) @printf(ptr noundef @.str.5, i32 noundef %121)
  br label %123

123:                                              ; preds = %116, %98
  %124 = load i32, ptr %7, align 4, !tbaa !12
  %125 = icmp ne i32 %124, 0
  br i1 %125, label %126, label %135

126:                                              ; preds = %123
  %127 = load i32, ptr %18, align 4, !tbaa !12
  %128 = load i32, ptr %19, align 4, !tbaa !12
  %129 = call i32 @Abc_MaxInt(i32 noundef %127, i32 noundef %128)
  %130 = load i32, ptr %18, align 4, !tbaa !12
  %131 = load i32, ptr %19, align 4, !tbaa !12
  %132 = call i32 @Abc_MinInt(i32 noundef %130, i32 noundef %131)
  %133 = sub nsw i32 %129, %132
  %134 = call i32 (ptr, ...) @printf(ptr noundef @.str.6, i32 noundef %133)
  br label %135

135:                                              ; preds = %126, %123
  %136 = load i32, ptr %7, align 4, !tbaa !12
  %137 = icmp ne i32 %136, 0
  br i1 %137, label %138, label %141

138:                                              ; preds = %135
  %139 = load i32, ptr %14, align 4, !tbaa !12
  %140 = call i32 (ptr, ...) @printf(ptr noundef @.str.7, i32 noundef %139)
  br label %141

141:                                              ; preds = %138, %135
  %142 = load i32, ptr %18, align 4, !tbaa !12
  %143 = icmp sgt i32 %142, 1
  br i1 %143, label %144, label %155

144:                                              ; preds = %141
  %145 = load i32, ptr %19, align 4, !tbaa !12
  %146 = icmp sgt i32 %145, 1
  br i1 %146, label %147, label %155

147:                                              ; preds = %144
  %148 = load i32, ptr %15, align 4, !tbaa !12
  %149 = load i32, ptr %14, align 4, !tbaa !12
  %150 = icmp sgt i32 %148, %149
  br i1 %150, label %151, label %155

151:                                              ; preds = %147
  %152 = load i32, ptr %14, align 4, !tbaa !12
  store i32 %152, ptr %15, align 4, !tbaa !12
  %153 = load i32, ptr %11, align 4, !tbaa !12
  store i32 %153, ptr %13, align 4, !tbaa !12
  %154 = load i32, ptr %18, align 4, !tbaa !12
  store i32 %154, ptr %16, align 4, !tbaa !12
  br label %155

155:                                              ; preds = %151, %147, %144, %141
  br label %156

156:                                              ; preds = %155
  %157 = load i32, ptr %11, align 4, !tbaa !12
  %158 = add nsw i32 %157, 1
  store i32 %158, ptr %11, align 4, !tbaa !12
  br label %24, !llvm.loop !29

159:                                              ; preds = %38
  %160 = load i32, ptr %13, align 4, !tbaa !12
  %161 = load ptr, ptr %6, align 8, !tbaa !10
  %162 = load i32, ptr %13, align 4, !tbaa !12
  %163 = call ptr @Saig_ManLo(ptr noundef %161, i32 noundef %162)
  %164 = call i32 @Aig_ObjId(ptr noundef %163)
  %165 = load i32, ptr %15, align 4, !tbaa !12
  %166 = load i32, ptr %17, align 4, !tbaa !12
  %167 = load i32, ptr %16, align 4, !tbaa !12
  %168 = call i32 (ptr, ...) @printf(ptr noundef @.str.8, i32 noundef %160, i32 noundef %164, i32 noundef %165, i32 noundef %166, i32 noundef %167)
  %169 = call i64 @Abc_Clock()
  %170 = load i64, ptr %20, align 8, !tbaa !14
  %171 = sub nsw i64 %169, %170
  call void @Abc_PrintTime(i32 noundef 1, ptr noundef @.str.9, i64 noundef %171)
  %172 = load i32, ptr %13, align 4, !tbaa !12
  call void @llvm.lifetime.end.p0(i64 8, ptr %20) #12
  call void @llvm.lifetime.end.p0(i64 4, ptr %19) #12
  call void @llvm.lifetime.end.p0(i64 4, ptr %18) #12
  call void @llvm.lifetime.end.p0(i64 4, ptr %17) #12
  call void @llvm.lifetime.end.p0(i64 4, ptr %16) #12
  call void @llvm.lifetime.end.p0(i64 4, ptr %15) #12
  call void @llvm.lifetime.end.p0(i64 4, ptr %14) #12
  call void @llvm.lifetime.end.p0(i64 4, ptr %13) #12
  call void @llvm.lifetime.end.p0(i64 4, ptr %12) #12
  call void @llvm.lifetime.end.p0(i64 4, ptr %11) #12
  call void @llvm.lifetime.end.p0(i64 8, ptr %10) #12
  call void @llvm.lifetime.end.p0(i64 8, ptr %9) #12
  call void @llvm.lifetime.end.p0(i64 8, ptr %8) #12
  call void @llvm.lifetime.end.p0(i64 4, ptr %7) #12
  ret i32 %172
}