; Function Attrs: nounwind uwtable
define noundef i32 @Llb_NonlinFindBestVar(ptr noundef %0, ptr noundef %1, ptr noundef readonly captures(none) %2) local_unnamed_addr #0 {
  %4 = alloca %struct.timespec, align 8
  %5 = alloca %struct.timespec, align 8
  call void @llvm.lifetime.start.p0(i64 16, ptr nonnull %5) #19
  %6 = call i32 @clock_gettime(i32 noundef 1, ptr noundef nonnull %5) #19
  %7 = icmp slt i32 %6, 0
  br i1 %7, label %Abc_Clock.exit, label %8

8:                                                ; preds = %3
  %9 = load i64, ptr %5, align 8, !tbaa !3
  %.neg85 = mul i64 %9, -1000000
  %10 = getelementptr inbounds nuw i8, ptr %5, i64 8
  %11 = load i64, ptr %10, align 8, !tbaa !8
  %.neg = sdiv i64 %11, -1000
  %.neg86 = add i64 %.neg, %.neg85
  br label %Abc_Clock.exit

Abc_Clock.exit:                                   ; preds = %3, %8
  %.0.i.neg = phi i64 [ %.neg86, %8 ], [ 1, %3 ]
  call void @llvm.lifetime.end.p0(i64 16, ptr nonnull %5) #19
  %12 = call i32 @Cudd_DagSize(ptr noundef %1) #19
  %13 = getelementptr i8, ptr %2, i64 104
  %.val88 = load i32, ptr %13, align 8, !tbaa !9
  %14 = icmp sgt i32 %.val88, 0
  br i1 %14, label %.lr.ph, label %.critedge

.lr.ph:                                           ; preds = %Abc_Clock.exit
  %15 = getelementptr inbounds nuw i8, ptr %2, i64 16
  %16 = getelementptr i8, ptr %2, i64 108
  br label %17

17:                                               ; preds = %.lr.ph, %17
  %.092 = phi i32 [ 0, %.lr.ph ], [ %40, %17 ]
  %.06991 = phi i32 [ -1, %.lr.ph ], [ %.1, %17 ]
  %.07090 = phi i32 [ 1000000000, %.lr.ph ], [ %.171, %17 ]
  %.07289 = phi i32 [ -1, %.lr.ph ], [ %.173, %17 ]
  %18 = load ptr, ptr %15, align 8, !tbaa !24
  %.val77 = load i32, ptr %16, align 4, !tbaa !25
  %19 = add nsw i32 %.val77, %.092
  %20 = getelementptr i8, ptr %18, i64 8
  %.val78 = load ptr, ptr %20, align 8, !tbaa !26
  %21 = sext i32 %19 to i64
  %22 = getelementptr inbounds ptr, ptr %.val78, i64 %21
  %23 = load ptr, ptr %22, align 8, !tbaa !28
  %24 = getelementptr i8, ptr %23, i64 36
  %.val79 = load i32, ptr %24, align 4, !tbaa !29
  %25 = call ptr @Cudd_bddIthVar(ptr noundef %0, i32 noundef %.val79) #19
  %26 = ptrtoint ptr %25 to i64
  %27 = xor i64 %26, 1
  %28 = inttoptr i64 %27 to ptr
  %29 = call ptr @Cudd_bddAnd(ptr noundef %0, ptr noundef %1, ptr noundef %28) #19
  call void @Cudd_Ref(ptr noundef %29) #19
  %30 = call i32 @Cudd_DagSize(ptr noundef %29) #19
  call void @Cudd_RecursiveDeref(ptr noundef %0, ptr noundef %29) #19
  %31 = call ptr @Cudd_bddAnd(ptr noundef %0, ptr noundef %1, ptr noundef %25) #19
  call void @Cudd_Ref(ptr noundef %31) #19
  %32 = call i32 @Cudd_DagSize(ptr noundef %31) #19
  call void @Cudd_RecursiveDeref(ptr noundef %0, ptr noundef %31) #19
  %sub = sub nsw i32 %30, %32
  %33 = call i32 @llvm.abs.i32(i32 %sub, i1 true)
  %34 = sub i32 %30, %12
  %35 = add i32 %34, %32
  %36 = add i32 %35, %33
  %37 = icmp sgt i32 %30, 1
  %38 = icmp sgt i32 %32, 1
  %or.cond = select i1 %37, i1 %38, i1 false
  %39 = icmp sgt i32 %.07090, %36
  %or.cond76 = select i1 %or.cond, i1 %39, i1 false
  %.173 = select i1 %or.cond76, i32 %30, i32 %.07289
  %.171 = select i1 %or.cond76, i32 %36, i32 %.07090
  %.1 = select i1 %or.cond76, i32 %.092, i32 %.06991
  %40 = add nuw nsw i32 %.092, 1
  %.val = load i32, ptr %13, align 8, !tbaa !9
  %41 = icmp slt i32 %40, %.val
  br i1 %41, label %17, label %.critedge, !llvm.loop !30

.critedge:                                        ; preds = %17, %Abc_Clock.exit
  %.072.lcssa = phi i32 [ -1, %Abc_Clock.exit ], [ %.173, %17 ]
  %.070.lcssa = phi i32 [ 1000000000, %Abc_Clock.exit ], [ %.171, %17 ]
  %.069.lcssa = phi i32 [ -1, %Abc_Clock.exit ], [ %.1, %17 ]
  %42 = getelementptr i8, ptr %2, i64 16
  %.val81 = load ptr, ptr %42, align 8, !tbaa !24
  %43 = getelementptr i8, ptr %2, i64 108
  %.val82 = load i32, ptr %43, align 4, !tbaa !25
  %44 = getelementptr i8, ptr %.val81, i64 8
  %.val81.val = load ptr, ptr %44, align 8, !tbaa !26
  %45 = add nsw i32 %.val82, %.069.lcssa
  %46 = sext i32 %45 to i64
  %47 = getelementptr inbounds ptr, ptr %.val81.val, i64 %46
  %48 = load ptr, ptr %47, align 8, !tbaa !28
  %49 = getelementptr i8, ptr %48, i64 36
  %.val80 = load i32, ptr %49, align 4, !tbaa !29
  %50 = call i32 (ptr, ...) @printf(ptr noundef nonnull dereferenceable(1) @.str.8, i32 noundef %.069.lcssa, i32 noundef %.val80, i32 noundef %.070.lcssa, i32 noundef %12, i32 noundef %.072.lcssa)
  call void @llvm.lifetime.start.p0(i64 16, ptr nonnull %4) #19
  %51 = call i32 @clock_gettime(i32 noundef 1, ptr noundef nonnull %4) #19
  %52 = icmp slt i32 %51, 0
  br i1 %52, label %Abc_Clock.exit84, label %53

53:                                               ; preds = %.critedge
  %54 = load i64, ptr %4, align 8, !tbaa !3
  %55 = mul nsw i64 %54, 1000000
  %56 = getelementptr inbounds nuw i8, ptr %4, i64 8
  %57 = load i64, ptr %56, align 8, !tbaa !8
  %58 = sdiv i64 %57, 1000
  %59 = add nsw i64 %58, %55
  br label %Abc_Clock.exit84

Abc_Clock.exit84:                                 ; preds = %.critedge, %53
  %.0.i83 = phi i64 [ %59, %53 ], [ -1, %.critedge ]
  call void @llvm.lifetime.end.p0(i64 16, ptr nonnull %4) #19
  %60 = add i64 %.0.i83, %.0.i.neg
  call void (i32, ptr, ...) @Abc_Print(i32 poison, ptr noundef nonnull @.str.42, ptr noundef nonnull @.str.9)
  %61 = sitofp i64 %60 to double
  %62 = fdiv double %61, 1.000000e+06
  call void (i32, ptr, ...) @Abc_Print(i32 poison, ptr noundef nonnull @.str.55, double noundef %62)
  ret i32 %.069.lcssa
}